target datalayout = "e-m:e-p270:32:32-p271:32:32-p272:64:64-i64:64-i128:128-f80:128-n8:16:32:64-S128"
target triple = "x86_64-pc-linux-gnu"

%"class.cv::Rect_" = type { i32, i32, i32, i32 }
%"class.cv::Mat" = type { i32, i32, i32, i32, ptr, ptr, ptr, ptr, ptr, ptr, %"struct.cv::MatSize", %"struct.cv::MatStep" }
%"struct.cv::MatSize" = type { ptr }
%"struct.cv::MatStep" = type { ptr, [2 x i64] }
%"class.cv::ximgproc::DisparityWLSFilterImpl" = type <{ %"class.cv::ximgproc::DisparityWLSFilter", i32, i32, i32, i32, %"class.cv::Rect_", %"class.cv::Rect_", i32, i8, [3 x i8], %"class.cv::Mat", double, double, i32, i32, float, float, i32, [4 x i8] }>
%"class.cv::ximgproc::DisparityWLSFilter" = type { %"class.cv::ximgproc::DisparityFilter" }
%"class.cv::ximgproc::DisparityFilter" = type { %"class.cv::Algorithm" }
%"class.cv::Algorithm" = type { ptr }

; Function Attrs: inlinehint mustprogress nounwind uwtable
define linkonce_odr hidden void @_ZN2cv5Rect_IiEC2Ev(ptr noundef nonnull align 4 dereferenceable(16) %0) unnamed_addr #6 comdat align 2 {
  %2 = alloca ptr, align 8
  store ptr %0, ptr %2, align 8, !tbaa !44
  %3 = load ptr, ptr %2, align 8
  %4 = getelementptr inbounds nuw %"class.cv::Rect_", ptr %3, i32 0, i32 0
  store i32 0, ptr %4, align 4, !tbaa !46
  %5 = getelementptr inbounds nuw %"class.cv::Rect_", ptr %3, i32 0, i32 1
  store i32 0, ptr %5, align 4, !tbaa !47
  %6 = getelementptr inbounds nuw %"class.cv::Rect_", ptr %3, i32 0, i32 2
  store i32 0, ptr %6, align 4, !tbaa !48
  %7 = getelementptr inbounds nuw %"class.cv::Rect_", ptr %3, i32 0, i32 3
  store i32 0, ptr %7, align 4, !tbaa !49
  ret void
}

; Function Attrs: mustprogress uwtable
define hidden void @_ZN2cv8ximgproc22DisparityWLSFilterImpl4initEddbiiiii(ptr noundef nonnull align 8 dereferenceable(196) %0, double noundef %1, double noundef %2, i1 noundef zeroext %3, i32 noundef %4, i32 noundef %5, i32 noundef %6, i32 noundef %7, i32 noundef %8) #4 align 2 personality ptr @__gxx_personality_v0 {
  %10 = alloca ptr, align 8
  %11 = alloca double, align 8
  %12 = alloca double, align 8
  %13 = alloca i8, align 1
  %14 = alloca i32, align 4
  %15 = alloca i32, align 4
  %16 = alloca i32, align 4
  %17 = alloca i32, align 4
  %18 = alloca i32, align 4
  %19 = alloca %"class.cv::Rect_", align 4
  %20 = alloca %"class.cv::Rect_", align 4
  %21 = alloca %"class.cv::Mat", align 8
  %22 = alloca ptr, align 8
  %23 = alloca i32, align 4
  store ptr %0, ptr %10, align 8, !tbaa !3
  store double %1, ptr %11, align 8, !tbaa !8
  store double %2, ptr %12, align 8, !tbaa !8
  %24 = zext i1 %3 to i8
  store i8 %24, ptr %13, align 1, !tbaa !10
  store i32 %4, ptr %14, align 4, !tbaa !12
  store i32 %5, ptr %15, align 4, !tbaa !12
  store i32 %6, ptr %16, align 4, !tbaa !12
  store i32 %7, ptr %17, align 4, !tbaa !12
  store i32 %8, ptr %18, align 4, !tbaa !12
  %25 = load ptr, ptr %10, align 8
  %26 = load i32, ptr %14, align 4, !tbaa !12
  %27 = getelementptr inbounds nuw %"class.cv::ximgproc::DisparityWLSFilterImpl", ptr %25, i32 0, i32 1
  store i32 %26, ptr %27, align 8, !tbaa !14
  %28 = load i32, ptr %15, align 4, !tbaa !12
  %29 = getelementptr inbounds nuw %"class.cv::ximgproc::DisparityWLSFilterImpl", ptr %25, i32 0, i32 2
  store i32 %28, ptr %29, align 4, !tbaa !29
  %30 = load i32, ptr %16, align 4, !tbaa !12
  %31 = getelementptr inbounds nuw %"class.cv::ximgproc::DisparityWLSFilterImpl", ptr %25, i32 0, i32 3
  store i32 %30, ptr %31, align 8, !tbaa !30
  %32 = load i32, ptr %17, align 4, !tbaa !12
  %33 = getelementptr inbounds nuw %"class.cv::ximgproc::DisparityWLSFilterImpl", ptr %25, i32 0, i32 4
  store i32 %32, ptr %33, align 4, !tbaa !31
  %34 = load i32, ptr %18, align 4, !tbaa !12
  %35 = getelementptr inbounds nuw %"class.cv::ximgproc::DisparityWLSFilterImpl", ptr %25, i32 0, i32 7
  store i32 %34, ptr %35, align 8, !tbaa !32
  call void @llvm.lifetime.start.p0(i64 16, ptr %19) #3
  call void @_ZN2cv5Rect_IiEC2Ev(ptr noundef nonnull align 4 dereferenceable(16) %19)
  %36 = getelementptr inbounds nuw %"class.cv::ximgproc::DisparityWLSFilterImpl", ptr %25, i32 0, i32 5
  call void @llvm.memcpy.p0.p0.i64(ptr align 8 %36, ptr align 4 %19, i64 16, i1 false), !tbaa.struct !33
  call void @llvm.lifetime.end.p0(i64 16, ptr %19) #3
  call void @llvm.lifetime.start.p0(i64 16, ptr %20) #3
  call void @_ZN2cv5Rect_IiEC2Ev(ptr noundef nonnull align 4 dereferenceable(16) %20)
  %37 = getelementptr inbounds nuw %"class.cv::ximgproc::DisparityWLSFilterImpl", ptr %25, i32 0, i32 6
  call void @llvm.memcpy.p0.p0.i64(ptr align 8 %37, ptr align 4 %20, i64 16, i1 false), !tbaa.struct !33
  call void @llvm.lifetime.end.p0(i64 16, ptr %20) #3
  %38 = getelementptr inbounds nuw %"class.cv::ximgproc::DisparityWLSFilterImpl", ptr %25, i32 0, i32 7
  store i32 0, ptr %38, align 8, !tbaa !32
  %39 = load double, ptr %11, align 8, !tbaa !8
  %40 = getelementptr inbounds nuw %"class.cv::ximgproc::DisparityWLSFilterImpl", ptr %25, i32 0, i32 11
  store double %39, ptr %40, align 8, !tbaa !34
  %41 = load double, ptr %12, align 8, !tbaa !8
  %42 = getelementptr inbounds nuw %"class.cv::ximgproc::DisparityWLSFilterImpl", ptr %25, i32 0, i32 12
  store double %41, ptr %42, align 8, !tbaa !35
  %43 = load i8, ptr %13, align 1, !tbaa !10, !range !36, !noundef !37
  %44 = trunc i8 %43 to i1
  %45 = getelementptr inbounds nuw %"class.cv::ximgproc::DisparityWLSFilterImpl", ptr %25, i32 0, i32 8
  %46 = zext i1 %44 to i8
  store i8 %46, ptr %45, align 4, !tbaa !38
  call void @llvm.lifetime.start.p0(i64 96, ptr %21) #3
  call void @_ZN2cv3MatC1Ev(ptr noundef nonnull align 8 dereferenceable(96) %21) #3
  %47 = getelementptr inbounds nuw %"class.cv::ximgproc::DisparityWLSFilterImpl", ptr %25, i32 0, i32 10
  %48 = invoke noundef nonnull align 8 dereferenceable(96) ptr @_ZN2cv3MataSEOS0_(ptr noundef nonnull align 8 dereferenceable(96) %47, ptr noundef nonnull align 8 dereferenceable(96) %21)
          to label %49 unwind label %56

49:                                               ; preds = %9
  call void @_ZN2cv3MatD1Ev(ptr noundef nonnull align 8 dereferenceable(96) %21) #3
  call void @llvm.lifetime.end.p0(i64 96, ptr %21) #3
  %50 = getelementptr inbounds nuw %"class.cv::ximgproc::DisparityWLSFilterImpl", ptr %25, i32 0, i32 13
  store i32 24, ptr %50, align 8, !tbaa !39
  %51 = getelementptr inbounds nuw %"class.cv::ximgproc::DisparityWLSFilterImpl", ptr %25, i32 0, i32 14
  store i32 5, ptr %51, align 4, !tbaa !40
  %52 = getelementptr inbounds nuw %"class.cv::ximgproc::DisparityWLSFilterImpl", ptr %25, i32 0, i32 15
  store float 0x3F50624DE0000000, ptr %52, align 8, !tbaa !41
  %53 = getelementptr inbounds nuw %"class.cv::ximgproc::DisparityWLSFilterImpl", ptr %25, i32 0, i32 16
  store float 1.000000e+00, ptr %53, align 4, !tbaa !42
  %54 = call noundef i32 @_ZN2cv13getNumThreadsEv()
  %55 = getelementptr inbounds nuw %"class.cv::ximgproc::DisparityWLSFilterImpl", ptr %25, i32 0, i32 17
  store i32 %54, ptr %55, align 8, !tbaa !43
  ret void

56:                                               ; preds = %9
  %57 = landingpad { ptr, i32 }
          cleanup
  %58 = extractvalue { ptr, i32 } %57, 0
  store ptr %58, ptr %22, align 8
  %59 = extractvalue { ptr, i32 } %57, 1
  store i32 %59, ptr %23, align 4
  call void @_ZN2cv3MatD1Ev(ptr noundef nonnull align 8 dereferenceable(96) %21) #3
  call void @llvm.lifetime.end.p0(i64 96, ptr %21) #3
  br label %60

60:                                               ; preds = %56
  %61 = load ptr, ptr %22, align 8
  %62 = load i32, ptr %23, align 4
  %63 = insertvalue { ptr, i32 } poison, ptr %61, 0
  %64 = insertvalue { ptr, i32 } %63, i32 %62, 1
  resume { ptr, i32 } %64
}