; Function Attrs: mustprogress uwtable
define hidden void @_ZN2cv8ximgproc22DisparityWLSFilterImpl4initEddbiiiii(ptr noundef nonnull align 8 dereferenceable(196) initializes((8, 61), (160, 176)) %0, double noundef %1, double noundef %2, i1 noundef zeroext %3, i32 noundef %4, i32 noundef %5, i32 noundef %6, i32 noundef %7, i32 noundef %8) local_unnamed_addr #3 align 2 personality ptr @__gxx_personality_v0 {
  %10 = alloca %"class.cv::Mat", align 8
  %11 = zext i1 %3 to i8
  %12 = getelementptr inbounds nuw i8, ptr %0, i64 8
  store i32 %4, ptr %12, align 8, !tbaa !3
  %13 = getelementptr inbounds nuw i8, ptr %0, i64 12
  store i32 %5, ptr %13, align 4, !tbaa !24
  %14 = getelementptr inbounds nuw i8, ptr %0, i64 16
  store i32 %6, ptr %14, align 8, !tbaa !25
  %15 = getelementptr inbounds nuw i8, ptr %0, i64 20
  store i32 %7, ptr %15, align 4, !tbaa !26
  %16 = getelementptr inbounds nuw i8, ptr %0, i64 56
  %17 = getelementptr inbounds nuw i8, ptr %0, i64 24
  tail call void @llvm.memset.p0.i64(ptr noundef nonnull align 8 dereferenceable(16) %17, i8 0, i64 16, i1 false)
  %18 = getelementptr inbounds nuw i8, ptr %0, i64 40
  tail call void @llvm.memset.p0.i64(ptr noundef nonnull align 8 dereferenceable(16) %18, i8 0, i64 16, i1 false)
  store i32 0, ptr %16, align 8, !tbaa !27
  %19 = getelementptr inbounds nuw i8, ptr %0, i64 160
  store double %1, ptr %19, align 8, !tbaa !28
  %20 = getelementptr inbounds nuw i8, ptr %0, i64 168
  store double %2, ptr %20, align 8, !tbaa !29
  %21 = getelementptr inbounds nuw i8, ptr %0, i64 60
  store i8 %11, ptr %21, align 4, !tbaa !30
  call void @llvm.lifetime.start.p0(i64 96, ptr nonnull %10) #23
  call void @_ZN2cv3MatC1Ev(ptr noundef nonnull align 8 dereferenceable(96) %10) #23
  %22 = getelementptr inbounds nuw i8, ptr %0, i64 64
  %23 = invoke noundef nonnull align 8 dereferenceable(96) ptr @_ZN2cv3MataSEOS0_(ptr noundef nonnull align 8 dereferenceable(96) %22, ptr noundef nonnull align 8 dereferenceable(96) %10)
          to label %24 unwind label %31

24:                                               ; preds = %9
  call void @_ZN2cv3MatD1Ev(ptr noundef nonnull align 8 dereferenceable(96) %10) #23
  call void @llvm.lifetime.end.p0(i64 96, ptr nonnull %10) #23
  %25 = getelementptr inbounds nuw i8, ptr %0, i64 176
  store i32 24, ptr %25, align 8, !tbaa !31
  %26 = getelementptr inbounds nuw i8, ptr %0, i64 180
  store i32 5, ptr %26, align 4, !tbaa !32
  %27 = getelementptr inbounds nuw i8, ptr %0, i64 184
  store float 0x3F50624DE0000000, ptr %27, align 8, !tbaa !33
  %28 = getelementptr inbounds nuw i8, ptr %0, i64 188
  store float 1.000000e+00, ptr %28, align 4, !tbaa !34
  %29 = call noundef i32 @_ZN2cv13getNumThreadsEv()
  %30 = getelementptr inbounds nuw i8, ptr %0, i64 192
  store i32 %29, ptr %30, align 8, !tbaa !35
  ret void

31:                                               ; preds = %9
  %32 = landingpad { ptr, i32 }
          cleanup
  call void @_ZN2cv3MatD1Ev(ptr noundef nonnull align 8 dereferenceable(96) %10) #23
  call void @llvm.lifetime.end.p0(i64 96, ptr nonnull %10) #23
  resume { ptr, i32 } %32
}